; ModuleID = '51/65.c'
source_filename = "51/65.c"
target datalayout = "e-m:e-p270:32:32-p271:32:32-p272:64:64-i64:64-f80:128-n8:16:32:64-S128"
target triple = "x86_64-pc-linux-gnu"

@.str = private unnamed_addr constant [3 x i8] c"%d\00", align 1
@.str.1 = private unnamed_addr constant [3 x i8] c"%s\00", align 1
@.str.2 = private unnamed_addr constant [4 x i8] c"%d\0A\00", align 1
@.str.3 = private unnamed_addr constant [3 x i8] c"NO\00", align 1

; Function Attrs: noinline nounwind uwtable
define dso_local i32 @main() #0 {
  %1 = alloca i32, align 4
  %2 = alloca i32, align 4
  %3 = alloca i32, align 4
  %4 = alloca i32, align 4
  %5 = alloca i32, align 4
  %6 = alloca i32, align 4
  %7 = alloca i32, align 4
  %8 = alloca [1000 x i8], align 16
  %9 = alloca [1000 x [8 x i8]], align 16
  %10 = alloca [1000 x i32], align 16
  %11 = alloca i32, align 4
  store i32 0, i32* %1, align 4
  %12 = call i32 (i8*, ...) @__isoc99_scanf(i8* getelementptr inbounds ([3 x i8], [3 x i8]* @.str, i64 0, i64 0), i32* %3)
  %13 = getelementptr inbounds [1000 x i8], [1000 x i8]* %8, i64 0, i64 0
  %14 = call i32 (i8*, ...) @__isoc99_scanf(i8* getelementptr inbounds ([3 x i8], [3 x i8]* @.str.1, i64 0, i64 0), i8* %13)
  %15 = getelementptr inbounds [1000 x i8], [1000 x i8]* %8, i64 0, i64 0
  %16 = call i64 @strlen(i8* %15) #4
  %17 = trunc i64 %16 to i32
  store i32 %17, i32* %4, align 4
  store i32 0, i32* %2, align 4
  br label %18

18:                                               ; preds = %49, %0
  %19 = load i32, i32* %2, align 4
  %20 = load i32, i32* %4, align 4
  %21 = load i32, i32* %3, align 4
  %22 = sub nsw i32 %20, %21
  %23 = icmp sle i32 %19, %22
  br i1 %23, label %24, label %52

24:                                               ; preds = %18
  %25 = load i32, i32* %2, align 4
  store i32 %25, i32* %6, align 4
  store i32 0, i32* %7, align 4
  br label %26

26:                                               ; preds = %43, %24
  %27 = load i32, i32* %6, align 4
  %28 = load i32, i32* %2, align 4
  %29 = load i32, i32* %3, align 4
  %30 = add nsw i32 %28, %29
  %31 = icmp slt i32 %27, %30
  br i1 %31, label %32, label %48

32:                                               ; preds = %26
  %33 = load i32, i32* %6, align 4
  %34 = sext i32 %33 to i64
  %35 = getelementptr inbounds [1000 x i8], [1000 x i8]* %8, i64 0, i64 %34
  %36 = load i8, i8* %35, align 1
  %37 = load i32, i32* %2, align 4
  %38 = sext i32 %37 to i64
  %39 = getelementptr inbounds [1000 x [8 x i8]], [1000 x [8 x i8]]* %9, i64 0, i64 %38
  %40 = load i32, i32* %7, align 4
  %41 = sext i32 %40 to i64
  %42 = getelementptr inbounds [8 x i8], [8 x i8]* %39, i64 0, i64 %41
  store i8 %36, i8* %42, align 1
  br label %43

43:                                               ; preds = %32
  %44 = load i32, i32* %6, align 4
  %45 = add nsw i32 %44, 1
  store i32 %45, i32* %6, align 4
  %46 = load i32, i32* %7, align 4
  %47 = add nsw i32 %46, 1
  store i32 %47, i32* %7, align 4
  br label %26

48:                                               ; preds = %26
  br label %49

49:                                               ; preds = %48
  %50 = load i32, i32* %2, align 4
  %51 = add nsw i32 %50, 1
  store i32 %51, i32* %2, align 4
  br label %18

52:                                               ; preds = %18
  %53 = getelementptr inbounds [1000 x i32], [1000 x i32]* %10, i64 0, i64 0
  %54 = bitcast i32* %53 to i8*
  call void @llvm.memset.p0i8.i64(i8* align 16 %54, i8 0, i64 4000, i1 false)
  store i32 0, i32* %2, align 4
  br label %55

55:                                               ; preds = %91, %52
  %56 = load i32, i32* %2, align 4
  %57 = load i32, i32* %4, align 4
  %58 = load i32, i32* %3, align 4
  %59 = sub nsw i32 %57, %58
  %60 = icmp sle i32 %56, %59
  br i1 %60, label %61, label %94

61:                                               ; preds = %55
  %62 = load i32, i32* %2, align 4
  store i32 %62, i32* %6, align 4
  br label %63

63:                                               ; preds = %87, %61
  %64 = load i32, i32* %6, align 4
  %65 = load i32, i32* %4, align 4
  %66 = load i32, i32* %3, align 4
  %67 = sub nsw i32 %65, %66
  %68 = icmp sle i32 %64, %67
  br i1 %68, label %69, label %90

69:                                               ; preds = %63
  %70 = load i32, i32* %2, align 4
  %71 = sext i32 %70 to i64
  %72 = getelementptr inbounds [1000 x [8 x i8]], [1000 x [8 x i8]]* %9, i64 0, i64 %71
  %73 = getelementptr inbounds [8 x i8], [8 x i8]* %72, i64 0, i64 0
  %74 = load i32, i32* %6, align 4
  %75 = sext i32 %74 to i64
  %76 = getelementptr inbounds [1000 x [8 x i8]], [1000 x [8 x i8]]* %9, i64 0, i64 %75
  %77 = getelementptr inbounds [8 x i8], [8 x i8]* %76, i64 0, i64 0
  %78 = call i32 @strcmp(i8* %73, i8* %77) #4
  %79 = icmp eq i32 %78, 0
  br i1 %79, label %80, label %86

80:                                               ; preds = %69
  %81 = load i32, i32* %2, align 4
  %82 = sext i32 %81 to i64
  %83 = getelementptr inbounds [1000 x i32], [1000 x i32]* %10, i64 0, i64 %82
  %84 = load i32, i32* %83, align 4
  %85 = add nsw i32 %84, 1
  store i32 %85, i32* %83, align 4
  br label %86

86:                                               ; preds = %80, %69
  br label %87

87:                                               ; preds = %86
  %88 = load i32, i32* %6, align 4
  %89 = add nsw i32 %88, 1
  store i32 %89, i32* %6, align 4
  br label %63

90:                                               ; preds = %63
  br label %91

91:                                               ; preds = %90
  %92 = load i32, i32* %2, align 4
  %93 = add nsw i32 %92, 1
  store i32 %93, i32* %2, align 4
  br label %55

94:                                               ; preds = %55
  %95 = getelementptr inbounds [1000 x i32], [1000 x i32]* %10, i64 0, i64 0
  %96 = load i32, i32* %95, align 16
  store i32 %96, i32* %11, align 4
  store i32 0, i32* %2, align 4
  br label %97

97:                                               ; preds = %116, %94
  %98 = load i32, i32* %2, align 4
  %99 = load i32, i32* %4, align 4
  %100 = load i32, i32* %3, align 4
  %101 = sub nsw i32 %99, %100
  %102 = icmp sle i32 %98, %101
  br i1 %102, label %103, label %119

103:                                              ; preds = %97
  %104 = load i32, i32* %11, align 4
  %105 = load i32, i32* %2, align 4
  %106 = sext i32 %105 to i64
  %107 = getelementptr inbounds [1000 x i32], [1000 x i32]* %10, i64 0, i64 %106
  %108 = load i32, i32* %107, align 4
  %109 = icmp slt i32 %104, %108
  br i1 %109, label %110, label %115

110:                                              ; preds = %103
  %111 = load i32, i32* %2, align 4
  %112 = sext i32 %111 to i64
  %113 = getelementptr inbounds [1000 x i32], [1000 x i32]* %10, i64 0, i64 %112
  %114 = load i32, i32* %113, align 4
  store i32 %114, i32* %11, align 4
  br label %115

115:                                              ; preds = %110, %103
  br label %116

116:                                              ; preds = %115
  %117 = load i32, i32* %2, align 4
  %118 = add nsw i32 %117, 1
  store i32 %118, i32* %2, align 4
  br label %97

119:                                              ; preds = %97
  %120 = load i32, i32* %11, align 4
  %121 = icmp sge i32 %120, 2
  br i1 %121, label %122, label %149

122:                                              ; preds = %119
  %123 = load i32, i32* %11, align 4
  %124 = call i32 (i8*, ...) @printf(i8* getelementptr inbounds ([4 x i8], [4 x i8]* @.str.2, i64 0, i64 0), i32 %123)
  store i32 0, i32* %2, align 4
  br label %125

125:                                              ; preds = %145, %122
  %126 = load i32, i32* %2, align 4
  %127 = load i32, i32* %4, align 4
  %128 = load i32, i32* %3, align 4
  %129 = sub nsw i32 %127, %128
  %130 = icmp sle i32 %126, %129
  br i1 %130, label %131, label %148

131:                                              ; preds = %125
  %132 = load i32, i32* %2, align 4
  %133 = sext i32 %132 to i64
  %134 = getelementptr inbounds [1000 x i32], [1000 x i32]* %10, i64 0, i64 %133
  %135 = load i32, i32* %134, align 4
  %136 = load i32, i32* %11, align 4
  %137 = icmp eq i32 %135, %136
  br i1 %137, label %138, label %144

138:                                              ; preds = %131
  %139 = load i32, i32* %2, align 4
  %140 = sext i32 %139 to i64
  %141 = getelementptr inbounds [1000 x [8 x i8]], [1000 x [8 x i8]]* %9, i64 0, i64 %140
  %142 = getelementptr inbounds [8 x i8], [8 x i8]* %141, i64 0, i64 0
  %143 = call i32 @puts(i8* %142)
  br label %144

144:                                              ; preds = %138, %131
  br label %145

145:                                              ; preds = %144
  %146 = load i32, i32* %2, align 4
  %147 = add nsw i32 %146, 1
  store i32 %147, i32* %2, align 4
  br label %125

148:                                              ; preds = %125
  br label %151

149:                                              ; preds = %119
  %150 = call i32 (i8*, ...) @printf(i8* getelementptr inbounds ([3 x i8], [3 x i8]* @.str.3, i64 0, i64 0))
  br label %151

151:                                              ; preds = %149, %148
  %152 = call i32 (i8*, ...) @__isoc99_scanf(i8* getelementptr inbounds ([3 x i8], [3 x i8]* @.str, i64 0, i64 0), i32* %5)
  ret i32 0
}

declare dso_local i32 @__isoc99_scanf(i8*, ...) #1

; Function Attrs: nounwind readonly
declare dso_local i64 @strlen(i8*) #2

; Function Attrs: argmemonly nounwind willreturn
declare void @llvm.memset.p0i8.i64(i8* nocapture writeonly, i8, i64, i1 immarg) #3

; Function Attrs: nounwind readonly
declare dso_local i32 @strcmp(i8*, i8*) #2

declare dso_local i32 @printf(i8*, ...) #1

declare dso_local i32 @puts(i8*) #1


!llvm.module.flags = !{!0}
!llvm.ident = !{!1}

!0 = !{i32 1, !"wchar_size", i32 4}
!1 = !{!"clang version 10.0.0-4ubuntu1 "}
